; Function Attrs: mustprogress uwtable
define noundef double @_ZNK8QuantLib7BMASwap15fairLiborSpreadEv(ptr noundef nonnull align 8 dereferenceable(288) %this) local_unnamed_addr #8 align 2 {
entry:
  %liborSpread_ = getelementptr inbounds nuw i8, ptr %this, i64 280
  %0 = load double, ptr %liborSpread_, align 8, !tbaa !67
  %call = tail call noundef double @_ZNK8QuantLib10Instrument3NPVEv(ptr noundef nonnull align 8 dereferenceable(104) %this)
  %call2 = tail call noundef double @_ZNK8QuantLib7BMASwap11liborLegBPSEv(ptr noundef nonnull align 8 dereferenceable(288) %this)
  %div = fdiv double %call2, 1.000000e-04
  %div3 = fdiv double %call, %div
  %sub = fsub double %0, %div3
  ret double %sub
}